(lp0
(lp1
S'1'
p2
aS'enb161'
p3
aS'eccm2'
p4
aS'qinglul test\\r'
p5
aS'135.242.110.45'
p6
aS'lyz'
p7
aS''
p8
ag8
aa(lp9
S'2'
p10
aS'enb173'
p11
ag8
ag8
aS'135.242.110.93'
p12
aS'cjy'
p13
ag8
ag8
aa(lp14
S'3'
p15
aS'enb176'
p16
ag8
ag8
aS'135.242.110.105'
p17
aS'wh'
p18
ag8
ag8
aa.