(lp0
(lp1
S'1'
p2
aS'enb161'
p3
aS''
p4
aS'at f301'
p5
aS'135.242.110.45'
p6
aS'lyz'
p7
aS"thanks buddy, it's very helpful"
p8
aS'E301'
p9
aa(lp10
S'2'
p11
aS'enb173'
p12
aS'bcam2'
p13
ag4
aS'135.242.110.93'
p14
aS'cjy'
p15
aS"it's a nice day"
p16
ag4
aa(lp17
S'3'
p18
aS'enb176'
p19
aS'eccm2'
p20
ag4
aS'135.242.110.105'
p21
aS'wang hui'
p22
aS'fantastic'
p23
aS'E002'
p24
aa.