(lp0
(lp1
S'1'
p2
aS'enb161'
p3
aS''
p4
ag4
aS'135.242.110.45'
p5
aS'lyz'
p6
ag4
ag4
aa(lp7
S'2'
p8
aS'enb173'
p9
ag4
ag4
aS'135.242.110.93'
p10
aS'cjy'
p11
ag4
ag4
aa(lp12
S'3'
p13
aS'enb176'
p14
ag4
ag4
aS'135.242.110.105'
p15
aS'wh'
p16
ag4
ag4
aa.